target datalayout = "e-m:e-p270:32:32-p271:32:32-p272:64:64-i64:64-i128:128-f80:128-n8:16:32:64-S128"
target triple = "x86_64-pc-linux-gnu"

%"class.pxrInternal_v0_24__pxrReserved__::Tf_ScopeDescriptionStackReportLock" = type { ptr }

@.str.35 = private unnamed_addr constant [15 x i8] c"unknown signal\00", align 1
@.str.36 = private unnamed_addr constant [17 x i8] c"received SIGSEGV\00", align 1
@.str.37 = private unnamed_addr constant [16 x i8] c"received SIGBUS\00", align 1
@.str.38 = private unnamed_addr constant [16 x i8] c"received SIGFPE\00", align 1
@.str.39 = private unnamed_addr constant [17 x i8] c"received SIGABRT\00", align 1
@.str.40 = private unnamed_addr constant [16 x i8] c"received SIGILL\00", align 1
@stdout = external global ptr, align 8
@stderr = external global ptr, align 8

; Function Attrs: mustprogress nounwind uwtable
define linkonce_odr noundef ptr @_ZNK32pxrInternal_v0_24__pxrReserved__34Tf_ScopeDescriptionStackReportLock10GetMessageEv(ptr noundef nonnull align 8 dereferenceable(8) %0) #2 comdat align 2 {
  %2 = alloca ptr, align 8
  store ptr %0, ptr %2, align 8
  %3 = load ptr, ptr %2, align 8
  %4 = getelementptr inbounds nuw %"class.pxrInternal_v0_24__pxrReserved__::Tf_ScopeDescriptionStackReportLock", ptr %3, i32 0, i32 0
  %5 = load ptr, ptr %4, align 8
  ret ptr %5
}

; Function Attrs: mustprogress uwtable
define internal void @_ZN32pxrInternal_v0_24__pxrReserved__L19_fatalSignalHandlerEiP9siginfo_tPv(i32 noundef %0, ptr noundef %1, ptr noundef %2) #0 personality ptr @__gxx_personality_v0 {
  %4 = alloca i32, align 4
  %5 = alloca ptr, align 8
  %6 = alloca ptr, align 8
  %7 = alloca ptr, align 8
  %8 = alloca %"class.pxrInternal_v0_24__pxrReserved__::Tf_ScopeDescriptionStackReportLock", align 8
  %9 = alloca ptr, align 8
  %10 = alloca i32, align 4
  store i32 %0, ptr %4, align 4
  store ptr %1, ptr %5, align 8
  store ptr %2, ptr %6, align 8
  store ptr @.str.35, ptr %7, align 8
  %11 = load i32, ptr %4, align 4
  switch i32 %11, label %17 [
    i32 11, label %12
    i32 7, label %13
    i32 8, label %14
    i32 6, label %15
    i32 4, label %16
  ]

12:                                               ; preds = %3
  store ptr @.str.36, ptr %7, align 8
  br label %20

13:                                               ; preds = %3
  store ptr @.str.37, ptr %7, align 8
  br label %20

14:                                               ; preds = %3
  store ptr @.str.38, ptr %7, align 8
  br label %20

15:                                               ; preds = %3
  store ptr @.str.39, ptr %7, align 8
  br label %20

16:                                               ; preds = %3
  store ptr @.str.40, ptr %7, align 8
  br label %20

17:                                               ; preds = %3
  %18 = load i32, ptr %4, align 4
  %19 = call ptr @strsignal(i32 noundef %18) #9
  store ptr %19, ptr %7, align 8
  br label %20

20:                                               ; preds = %17, %16, %15, %14, %13, %12
  call void @_ZN32pxrInternal_v0_24__pxrReserved__34Tf_ScopeDescriptionStackReportLockC1Ev(ptr noundef nonnull align 8 dereferenceable(8) %8)
  %21 = load ptr, ptr %7, align 8
  %22 = invoke noundef ptr @_ZNK32pxrInternal_v0_24__pxrReserved__34Tf_ScopeDescriptionStackReportLock10GetMessageEv(ptr noundef nonnull align 8 dereferenceable(8) %8)
          to label %23 unwind label %31

23:                                               ; preds = %20
  invoke void @_ZN32pxrInternal_v0_24__pxrReserved__24ArchLogFatalProcessStateEPKcS1_S1_(ptr noundef %21, ptr noundef null, ptr noundef %22)
          to label %24 unwind label %31

24:                                               ; preds = %23
  call void @_ZN32pxrInternal_v0_24__pxrReserved__34Tf_ScopeDescriptionStackReportLockD1Ev(ptr noundef nonnull align 8 dereferenceable(8) %8) #9
  %25 = load ptr, ptr @stdout, align 8
  %26 = call i32 @fflush(ptr noundef %25)
  %27 = load ptr, ptr @stderr, align 8
  %28 = call i32 @fflush(ptr noundef %27)
  %29 = load i32, ptr %4, align 4
  %30 = add nsw i32 128, %29
  call void @_exit(i32 noundef %30) #12
  unreachable

31:                                               ; preds = %23, %20
  %32 = landingpad { ptr, i32 }
          cleanup
  %33 = extractvalue { ptr, i32 } %32, 0
  store ptr %33, ptr %9, align 8
  %34 = extractvalue { ptr, i32 } %32, 1
  store i32 %34, ptr %10, align 4
  call void @_ZN32pxrInternal_v0_24__pxrReserved__34Tf_ScopeDescriptionStackReportLockD1Ev(ptr noundef nonnull align 8 dereferenceable(8) %8) #9
  br label %35

35:                                               ; preds = %31
  %36 = load ptr, ptr %9, align 8
  %37 = load i32, ptr %10, align 4
  %38 = insertvalue { ptr, i32 } poison, ptr %36, 0
  %39 = insertvalue { ptr, i32 } %38, i32 %37, 1
  resume { ptr, i32 } %39
}