; Function Attrs: mustprogress noreturn uwtable
define internal void @_ZN32pxrInternal_v0_24__pxrReserved__L19_fatalSignalHandlerEiP9siginfo_tPv(i32 noundef %0, ptr readnone captures(none) %1, ptr readnone captures(none) %2) #11 personality ptr @__gxx_personality_v0 {
  %4 = alloca %"class.pxrInternal_v0_24__pxrReserved__::Tf_ScopeDescriptionStackReportLock", align 8
  %switch.tableidx = add i32 %0, -4
  %5 = icmp ult i32 %switch.tableidx, 8
  br i1 %5, label %switch.hole_check, label %6

6:                                                ; preds = %switch.hole_check, %3
  %7 = tail call ptr @strsignal(i32 noundef %0) #20
  br label %9

switch.hole_check:                                ; preds = %3
  %switch.maskindex = trunc nuw i32 %switch.tableidx to i8
  %switch.shifted = lshr i8 -99, %switch.maskindex
  %switch.lobit = trunc i8 %switch.shifted to i1
  br i1 %switch.lobit, label %switch.lookup, label %6

switch.lookup:                                    ; preds = %switch.hole_check
  %8 = zext nneg i32 %switch.tableidx to i64
  %switch.gep = getelementptr inbounds nuw [8 x ptr], ptr @switch.table._ZN32pxrInternal_v0_24__pxrReserved__L19_fatalSignalHandlerEiP9siginfo_tPv, i64 0, i64 %8
  %switch.load = load ptr, ptr %switch.gep, align 8
  br label %9

9:                                                ; preds = %switch.lookup, %6
  %.0 = phi ptr [ %7, %6 ], [ %switch.load, %switch.lookup ]
  call void @_ZN32pxrInternal_v0_24__pxrReserved__34Tf_ScopeDescriptionStackReportLockC1Ev(ptr noundef nonnull align 8 dereferenceable(8) %4)
  %10 = load ptr, ptr %4, align 8
  invoke void @_ZN32pxrInternal_v0_24__pxrReserved__24ArchLogFatalProcessStateEPKcS1_S1_(ptr noundef %.0, ptr noundef null, ptr noundef %10)
          to label %11 unwind label %17

11:                                               ; preds = %9
  call void @_ZN32pxrInternal_v0_24__pxrReserved__34Tf_ScopeDescriptionStackReportLockD1Ev(ptr noundef nonnull align 8 dereferenceable(8) %4) #20
  %12 = load ptr, ptr @stdout, align 8
  %13 = call i32 @fflush(ptr noundef %12)
  %14 = load ptr, ptr @stderr, align 8
  %15 = call i32 @fflush(ptr noundef %14)
  %16 = add nsw i32 %0, 128
  call void @_exit(i32 noundef %16) #21
  unreachable

17:                                               ; preds = %9
  %18 = landingpad { ptr, i32 }
          cleanup
  call void @_ZN32pxrInternal_v0_24__pxrReserved__34Tf_ScopeDescriptionStackReportLockD1Ev(ptr noundef nonnull align 8 dereferenceable(8) %4) #20
  resume { ptr, i32 } %18
}